target datalayout = "e-m:e-p270:32:32-p271:32:32-p272:64:64-i64:64-i128:128-f80:128-n8:16:32:64-S128"
target triple = "x86_64-pc-linux-gnu"

%"class.std::__cxx11::basic_string" = type { %"struct.std::__cxx11::basic_string<char>::_Alloc_hider", i64, %union.anon }
%"struct.std::__cxx11::basic_string<char>::_Alloc_hider" = type { ptr }
%union.anon = type { i64, [8 x i8] }

@.str.8 = private unnamed_addr constant [2 x i8] c"\0A\00", align 1

; Function Attrs: mustprogress uwtable
define noundef i64 @_ZNK3gmx15TextLineWrapper12findNextLineERKNSt7__cxx1112basic_stringIcSt11char_traitsIcESaIcEEEm(ptr noundef nonnull align 4 dereferenceable(16) %0, ptr noundef nonnull align 8 dereferenceable(32) %1, i64 noundef %2) #3 align 2 {
  %4 = alloca ptr, align 8
  %5 = alloca ptr, align 8
  %6 = alloca i64, align 8
  store ptr %0, ptr %4, align 8
  store ptr %1, ptr %5, align 8
  store i64 %2, ptr %6, align 8
  %7 = load ptr, ptr %4, align 8
  %8 = load ptr, ptr %5, align 8
  %9 = call noundef ptr @_ZNKSt7__cxx1112basic_stringIcSt11char_traitsIcESaIcEE5c_strEv(ptr noundef nonnull align 8 dereferenceable(32) %8) #13
  %10 = load i64, ptr %6, align 8
  %11 = call noundef i64 @_ZNK3gmx15TextLineWrapper12findNextLineEPKcm(ptr noundef nonnull align 4 dereferenceable(16) %7, ptr noundef %9, i64 noundef %10)
  ret i64 %11
}

; Function Attrs: mustprogress uwtable
define void @_ZNK3gmx15TextLineWrapper12wrapToStringERKNSt7__cxx1112basic_stringIcSt11char_traitsIcESaIcEEE(ptr dead_on_unwind noalias writable sret(%"class.std::__cxx11::basic_string") align 8 %0, ptr noundef nonnull align 4 dereferenceable(16) %1, ptr noundef nonnull align 8 dereferenceable(32) %2) #3 align 2 personality ptr @__gxx_personality_v0 {
  %4 = alloca ptr, align 8
  %5 = alloca ptr, align 8
  %6 = alloca ptr, align 8
  %7 = alloca i1, align 1
  %8 = alloca i64, align 8
  %9 = alloca i64, align 8
  %10 = alloca i64, align 8
  %11 = alloca ptr, align 8
  %12 = alloca i32, align 4
  %13 = alloca %"class.std::__cxx11::basic_string", align 8
  store ptr %0, ptr %4, align 8
  store ptr %1, ptr %5, align 8
  store ptr %2, ptr %6, align 8
  %14 = load ptr, ptr %5, align 8
  store i1 false, ptr %7, align 1
  call void @_ZNSt7__cxx1112basic_stringIcSt11char_traitsIcESaIcEEC1Ev(ptr noundef nonnull align 8 dereferenceable(32) %0) #13
  store i64 0, ptr %8, align 8
  %15 = load ptr, ptr %6, align 8
  %16 = call noundef i64 @_ZNKSt7__cxx1112basic_stringIcSt11char_traitsIcESaIcEE6lengthEv(ptr noundef nonnull align 8 dereferenceable(32) %15) #13
  store i64 %16, ptr %9, align 8
  br label %17

17:                                               ; preds = %58, %3
  %18 = load i64, ptr %8, align 8
  %19 = load i64, ptr %9, align 8
  %20 = icmp ult i64 %18, %19
  br i1 %20, label %21, label %60

21:                                               ; preds = %17
  %22 = load ptr, ptr %6, align 8
  %23 = load i64, ptr %8, align 8
  %24 = invoke noundef i64 @_ZNK3gmx15TextLineWrapper12findNextLineERKNSt7__cxx1112basic_stringIcSt11char_traitsIcESaIcEEEm(ptr noundef nonnull align 4 dereferenceable(16) %14, ptr noundef nonnull align 8 dereferenceable(32) %22, i64 noundef %23)
          to label %25 unwind label %50

25:                                               ; preds = %21
  store i64 %24, ptr %10, align 8
  %26 = load ptr, ptr %6, align 8
  %27 = load i64, ptr %8, align 8
  %28 = load i64, ptr %10, align 8
  invoke void @_ZNK3gmx15TextLineWrapper10formatLineERKNSt7__cxx1112basic_stringIcSt11char_traitsIcESaIcEEEmm(ptr dead_on_unwind writable sret(%"class.std::__cxx11::basic_string") align 8 %13, ptr noundef nonnull align 4 dereferenceable(16) %14, ptr noundef nonnull align 8 dereferenceable(32) %26, i64 noundef %27, i64 noundef %28)
          to label %29 unwind label %50

29:                                               ; preds = %25
  %30 = invoke noundef nonnull align 8 dereferenceable(32) ptr @_ZNSt7__cxx1112basic_stringIcSt11char_traitsIcESaIcEE6appendERKS4_(ptr noundef nonnull align 8 dereferenceable(32) %0, ptr noundef nonnull align 8 dereferenceable(32) %13)
          to label %31 unwind label %54

31:                                               ; preds = %29
  call void @_ZNSt7__cxx1112basic_stringIcSt11char_traitsIcESaIcEED1Ev(ptr noundef nonnull align 8 dereferenceable(32) %13) #13
  %32 = load i64, ptr %10, align 8
  %33 = load i64, ptr %9, align 8
  %34 = icmp ult i64 %32, %33
  br i1 %34, label %47, label %35

35:                                               ; preds = %31
  %36 = load i64, ptr %10, align 8
  %37 = load i64, ptr %9, align 8
  %38 = icmp eq i64 %36, %37
  br i1 %38, label %39, label %58

39:                                               ; preds = %35
  %40 = load ptr, ptr %6, align 8
  %41 = load i64, ptr %9, align 8
  %42 = sub i64 %41, 1
  %43 = call noundef nonnull align 1 dereferenceable(1) ptr @_ZNKSt7__cxx1112basic_stringIcSt11char_traitsIcESaIcEEixEm(ptr noundef nonnull align 8 dereferenceable(32) %40, i64 noundef %42) #13
  %44 = load i8, ptr %43, align 1
  %45 = sext i8 %44 to i32
  %46 = icmp eq i32 %45, 10
  br i1 %46, label %47, label %58

47:                                               ; preds = %39, %31
  %48 = invoke noundef nonnull align 8 dereferenceable(32) ptr @_ZNSt7__cxx1112basic_stringIcSt11char_traitsIcESaIcEE6appendEPKc(ptr noundef nonnull align 8 dereferenceable(32) %0, ptr noundef @.str.8)
          to label %49 unwind label %50

49:                                               ; preds = %47
  br label %58

50:                                               ; preds = %47, %25, %21
  %51 = landingpad { ptr, i32 }
          cleanup
  %52 = extractvalue { ptr, i32 } %51, 0
  store ptr %52, ptr %11, align 8
  %53 = extractvalue { ptr, i32 } %51, 1
  store i32 %53, ptr %12, align 4
  br label %64

54:                                               ; preds = %29
  %55 = landingpad { ptr, i32 }
          cleanup
  %56 = extractvalue { ptr, i32 } %55, 0
  store ptr %56, ptr %11, align 8
  %57 = extractvalue { ptr, i32 } %55, 1
  store i32 %57, ptr %12, align 4
  call void @_ZNSt7__cxx1112basic_stringIcSt11char_traitsIcESaIcEED1Ev(ptr noundef nonnull align 8 dereferenceable(32) %13) #13
  br label %64

58:                                               ; preds = %49, %39, %35
  %59 = load i64, ptr %10, align 8
  store i64 %59, ptr %8, align 8
  br label %17, !llvm.loop !26

60:                                               ; preds = %17
  store i1 true, ptr %7, align 1
  %61 = load i1, ptr %7, align 1
  br i1 %61, label %63, label %62

62:                                               ; preds = %60
  call void @_ZNSt7__cxx1112basic_stringIcSt11char_traitsIcESaIcEED1Ev(ptr noundef nonnull align 8 dereferenceable(32) %0) #13
  br label %63

63:                                               ; preds = %62, %60
  ret void

64:                                               ; preds = %54, %50
  call void @_ZNSt7__cxx1112basic_stringIcSt11char_traitsIcESaIcEED1Ev(ptr noundef nonnull align 8 dereferenceable(32) %0) #13
  br label %65

65:                                               ; preds = %64
  %66 = load ptr, ptr %11, align 8
  %67 = load i32, ptr %12, align 4
  %68 = insertvalue { ptr, i32 } poison, ptr %66, 0
  %69 = insertvalue { ptr, i32 } %68, i32 %67, 1
  resume { ptr, i32 } %69
}