; Function Attrs: mustprogress uwtable
define void @_ZNK3gmx15TextLineWrapper12wrapToStringERKNSt7__cxx1112basic_stringIcSt11char_traitsIcESaIcEEE(ptr dead_on_unwind noalias nonnull writable sret(%"class.std::__cxx11::basic_string") align 8 %0, ptr nocapture noundef nonnull readonly align 4 dereferenceable(16) %1, ptr noundef nonnull align 8 dereferenceable(32) %2) local_unnamed_addr #6 align 2 personality ptr @__gxx_personality_v0 {
  %4 = alloca %"class.std::__cxx11::basic_string", align 8
  tail call void @_ZNSt7__cxx1112basic_stringIcSt11char_traitsIcESaIcEEC1Ev(ptr noundef nonnull align 8 dereferenceable(32) %0) #22
  %5 = tail call noundef i64 @_ZNKSt7__cxx1112basic_stringIcSt11char_traitsIcESaIcEE6lengthEv(ptr noundef nonnull align 8 dereferenceable(32) %2) #22
  %.not = icmp eq i64 %5, 0
  br i1 %.not, label %._crit_edge, label %.lr.ph

.lr.ph:                                           ; preds = %3
  %6 = add i64 %5, -1
  br label %7

7:                                                ; preds = %.lr.ph, %26
  %.01923 = phi i64 [ 0, %.lr.ph ], [ %9, %26 ]
  %8 = call noundef ptr @_ZNKSt7__cxx1112basic_stringIcSt11char_traitsIcESaIcEE5c_strEv(ptr noundef nonnull align 8 dereferenceable(32) %2) #22
  %9 = call noundef i64 @_ZNK3gmx15TextLineWrapper12findNextLineEPKcm(ptr noundef nonnull align 4 dereferenceable(16) %1, ptr noundef %8, i64 noundef %.01923)
  invoke void @_ZNK3gmx15TextLineWrapper10formatLineERKNSt7__cxx1112basic_stringIcSt11char_traitsIcESaIcEEEmm(ptr dead_on_unwind nonnull writable sret(%"class.std::__cxx11::basic_string") align 8 %4, ptr noundef nonnull align 4 dereferenceable(16) %1, ptr noundef nonnull align 8 dereferenceable(32) %2, i64 noundef %.01923, i64 noundef %9)
          to label %10 unwind label %22

10:                                               ; preds = %7
  %11 = invoke noundef nonnull align 8 dereferenceable(32) ptr @_ZNSt7__cxx1112basic_stringIcSt11char_traitsIcESaIcEE6appendERKS4_(ptr noundef nonnull align 8 dereferenceable(32) %0, ptr noundef nonnull align 8 dereferenceable(32) %4)
          to label %12 unwind label %24

12:                                               ; preds = %10
  call void @_ZNSt7__cxx1112basic_stringIcSt11char_traitsIcESaIcEED1Ev(ptr noundef nonnull align 8 dereferenceable(32) %4) #22
  %13 = icmp ult i64 %9, %5
  br i1 %13, label %20, label %14

14:                                               ; preds = %12
  %15 = icmp eq i64 %9, %5
  br i1 %15, label %16, label %._crit_edge

16:                                               ; preds = %14
  %17 = call noundef nonnull align 1 dereferenceable(1) ptr @_ZNKSt7__cxx1112basic_stringIcSt11char_traitsIcESaIcEEixEm(ptr noundef nonnull align 8 dereferenceable(32) %2, i64 noundef %6) #22
  %18 = load i8, ptr %17, align 1
  %19 = icmp eq i8 %18, 10
  br i1 %19, label %20, label %._crit_edge

20:                                               ; preds = %16, %12
  %21 = invoke noundef nonnull align 8 dereferenceable(32) ptr @_ZNSt7__cxx1112basic_stringIcSt11char_traitsIcESaIcEE6appendEPKc(ptr noundef nonnull align 8 dereferenceable(32) %0, ptr noundef nonnull @.str.8)
          to label %26 unwind label %22

22:                                               ; preds = %20, %7
  %23 = landingpad { ptr, i32 }
          cleanup
  br label %27

24:                                               ; preds = %10
  %25 = landingpad { ptr, i32 }
          cleanup
  call void @_ZNSt7__cxx1112basic_stringIcSt11char_traitsIcESaIcEED1Ev(ptr noundef nonnull align 8 dereferenceable(32) %4) #22
  br label %27

26:                                               ; preds = %20
  br i1 %13, label %7, label %._crit_edge, !llvm.loop !26

._crit_edge:                                      ; preds = %14, %16, %26, %3
  ret void

27:                                               ; preds = %24, %22
  %.pn = phi { ptr, i32 } [ %23, %22 ], [ %25, %24 ]
  call void @_ZNSt7__cxx1112basic_stringIcSt11char_traitsIcESaIcEED1Ev(ptr noundef nonnull align 8 dereferenceable(32) %0) #22
  resume { ptr, i32 } %.pn
}